; Function Attrs: nounwind uwtable
define void @Cba_Init(ptr noundef %0) local_unnamed_addr #0 {
  tail call void @Cmd_CommandAdd(ptr noundef %0, ptr noundef nonnull @.str, ptr noundef nonnull @.str.1, ptr noundef nonnull @Cba_CommandRead, i32 noundef 0) #19
  tail call void @Cmd_CommandAdd(ptr noundef %0, ptr noundef nonnull @.str, ptr noundef nonnull @.str.2, ptr noundef nonnull @Cba_CommandWrite, i32 noundef 0) #19
  tail call void @Cmd_CommandAdd(ptr noundef %0, ptr noundef nonnull @.str, ptr noundef nonnull @.str.3, ptr noundef nonnull @Cba_CommandPs, i32 noundef 0) #19
  tail call void @Cmd_CommandAdd(ptr noundef %0, ptr noundef nonnull @.str, ptr noundef nonnull @.str.4, ptr noundef nonnull @Cba_CommandPut, i32 noundef 0) #19
  tail call void @Cmd_CommandAdd(ptr noundef %0, ptr noundef nonnull @.str, ptr noundef nonnull @.str.5, ptr noundef nonnull @Cba_CommandGet, i32 noundef 0) #19
  tail call void @Cmd_CommandAdd(ptr noundef %0, ptr noundef nonnull @.str, ptr noundef nonnull @.str.6, ptr noundef nonnull @Cba_CommandClp, i32 noundef 0) #19
  tail call void @Cmd_CommandAdd(ptr noundef %0, ptr noundef nonnull @.str, ptr noundef nonnull @.str.7, ptr noundef nonnull @Cba_CommandBlast, i32 noundef 0) #19
  tail call void @Cmd_CommandAdd(ptr noundef %0, ptr noundef nonnull @.str, ptr noundef nonnull @.str.8, ptr noundef nonnull @Cba_CommandCec, i32 noundef 0) #19
  tail call void @Cmd_CommandAdd(ptr noundef %0, ptr noundef nonnull @.str, ptr noundef nonnull @.str.9, ptr noundef nonnull @Cba_CommandTest, i32 noundef 0) #19
  ret void
}